target datalayout = "e-m:e-p270:32:32-p271:32:32-p272:64:64-i64:64-i128:128-f80:128-n8:16:32:64-S128"
target triple = "x86_64-pc-linux-gnu"

%"struct.cv::aruco::zmaxheap" = type { i64, i32, i32, ptr, ptr, ptr }

; Function Attrs: mustprogress nounwind uwtable
define hidden noundef ptr @_ZN2cv5aruco15zmaxheap_createEm(i64 noundef %0) #0 {
  %2 = alloca i64, align 8
  %3 = alloca ptr, align 8
  store i64 %0, ptr %2, align 8
  %4 = call noalias ptr @calloc(i64 noundef 1, i64 noundef 40) #11
  store ptr %4, ptr %3, align 8
  %5 = load i64, ptr %2, align 8
  %6 = load ptr, ptr %3, align 8
  %7 = getelementptr inbounds %"struct.cv::aruco::zmaxheap", ptr %6, i32 0, i32 0
  store i64 %5, ptr %7, align 8
  %8 = load ptr, ptr %3, align 8
  %9 = getelementptr inbounds %"struct.cv::aruco::zmaxheap", ptr %8, i32 0, i32 5
  store ptr @_ZN2cv5arucoL13_swap_defaultEPNS0_8zmaxheapEii, ptr %9, align 8
  %10 = load i64, ptr %2, align 8
  %11 = icmp eq i64 %10, 8
  br i1 %11, label %12, label %15

12:                                               ; preds = %1
  %13 = load ptr, ptr %3, align 8
  %14 = getelementptr inbounds %"struct.cv::aruco::zmaxheap", ptr %13, i32 0, i32 5
  store ptr @_ZN2cv5arucoL13_swap_pointerEPNS0_8zmaxheapEii, ptr %14, align 8
  br label %15

15:                                               ; preds = %12, %1
  %16 = load ptr, ptr %3, align 8
  ret ptr %16
}