; Function Attrs: mustprogress nofree nounwind willreturn memory(write, argmem: none, inaccessiblemem: readwrite) uwtable
define hidden noalias noundef ptr @_ZN2cv5aruco15zmaxheap_createEm(i64 noundef %0) local_unnamed_addr #0 {
  %2 = tail call noalias dereferenceable_or_null(40) ptr @calloc(i64 noundef 1, i64 noundef 40) #14
  store i64 %0, ptr %2, align 8
  %3 = icmp eq i64 %0, 8
  %spec.select = select i1 %3, ptr @_ZN2cv5arucoL13_swap_pointerEPNS0_8zmaxheapEii, ptr @_ZN2cv5arucoL13_swap_defaultEPNS0_8zmaxheapEii
  %4 = getelementptr inbounds i8, ptr %2, i64 32
  store ptr %spec.select, ptr %4, align 8
  ret ptr %2
}